; Function Attrs: mustprogress uwtable
define dso_local void @_ZN18cmLinkLineComputer15ComputeLinkPathER24cmComputeLinkInformationRKNSt7__cxx1112basic_stringIcSt11char_traitsIcESaIcEEES9_(ptr dead_on_unwind noalias nonnull writable sret(%"class.std::__cxx11::basic_string") align 8 %0, ptr nocapture noundef nonnull readonly align 8 dereferenceable(60) %1, ptr noundef nonnull align 8 dereferenceable(2960) %2, ptr noundef nonnull align 8 dereferenceable(32) %3, ptr noundef nonnull align 8 dereferenceable(32) %4) local_unnamed_addr #9 align 2 personality ptr @__gxx_personality_v0 {
  %6 = alloca %"class.std::vector", align 8
  tail call void @_ZNSt7__cxx1112basic_stringIcSt11char_traitsIcESaIcEEC1Ev(ptr noundef nonnull align 8 dereferenceable(32) %0) #19
  call void @llvm.memset.p0.i64(ptr noundef nonnull align 8 dereferenceable(24) %6, i8 0, i64 24, i1 false)
  invoke void @_ZN18cmLinkLineComputer15ComputeLinkPathER24cmComputeLinkInformationRKNSt7__cxx1112basic_stringIcSt11char_traitsIcESaIcEEES9_RSt6vectorI2BTIS7_ESaISC_EE(ptr noundef nonnull align 8 dereferenceable(60) %1, ptr noundef nonnull align 8 dereferenceable(2960) %2, ptr noundef nonnull align 8 dereferenceable(32) %3, ptr noundef nonnull align 8 dereferenceable(32) %4, ptr noundef nonnull align 8 dereferenceable(24) %6)
          to label %7 unwind label %9

7:                                                ; preds = %5
  invoke void @_ZN24cmComputeLinkInformation12AppendValuesERNSt7__cxx1112basic_stringIcSt11char_traitsIcESaIcEEERSt6vectorI2BTIS5_ESaIS9_EE(ptr noundef nonnull align 8 dereferenceable(2960) %2, ptr noundef nonnull align 8 dereferenceable(32) %0, ptr noundef nonnull align 8 dereferenceable(24) %6)
          to label %8 unwind label %9

8:                                                ; preds = %7
  call void @_ZNSt6vectorI2BTINSt7__cxx1112basic_stringIcSt11char_traitsIcESaIcEEEESaIS7_EED2Ev(ptr noundef nonnull align 8 dereferenceable(24) %6) #19
  ret void

9:                                                ; preds = %7, %5
  %10 = landingpad { ptr, i32 }
          cleanup
  call void @_ZNSt6vectorI2BTINSt7__cxx1112basic_stringIcSt11char_traitsIcESaIcEEEESaIS7_EED2Ev(ptr noundef nonnull align 8 dereferenceable(24) %6) #19
  call void @_ZNSt7__cxx1112basic_stringIcSt11char_traitsIcESaIcEED1Ev(ptr noundef nonnull align 8 dereferenceable(32) %0) #19
  resume { ptr, i32 } %10
}